(dp0
S'Xn1'
p1
cnumpy.core.multiarray
_reconstruct
p2
(cnumpy
ndarray
p3
(I0
tp4
S'b'
p5
tp6
Rp7
(I1
(I0
tp8
cnumpy
dtype
p9
(S'f8'
p10
I0
I1
tp11
Rp12
(I3
S'<'
p13
NNNI-1
I-1
I0
tp14
bI00
S''
p15
tp16
bsS'Xn0'
p17
g2
(g3
(I0
tp18
g5
tp19
Rp20
(I1
(I0
tp21
g12
I00
g15
tp22
bsS'Xn2'
p23
g2
(g3
(I0
tp24
g5
tp25
Rp26
(I1
(I0
tp27
g12
I00
g15
tp28
bs.